; ModuleID = '32/396.c'
source_filename = "32/396.c"
target datalayout = "e-m:e-p270:32:32-p271:32:32-p272:64:64-i64:64-f80:128-n8:16:32:64-S128"
target triple = "x86_64-pc-linux-gnu"

@.str = private unnamed_addr constant [3 x i8] c"%d\00", align 1
@.str.1 = private unnamed_addr constant [3 x i8] c"%s\00", align 1
@.str.2 = private unnamed_addr constant [3 x i8] c"%c\00", align 1
@.str.3 = private unnamed_addr constant [2 x i8] c"\0A\00", align 1

; Function Attrs: noinline nounwind uwtable
define dso_local i32 @main() #0 {
  %1 = alloca i32, align 4
  %2 = alloca i32, align 4
  %3 = alloca [100 x i32], align 16
  %4 = alloca [100 x [100 x i8]], align 16
  %5 = alloca i32, align 4
  %6 = alloca [100 x i8], align 16
  %7 = alloca [100 x i8], align 16
  %8 = alloca i32, align 4
  %9 = alloca i32, align 4
  %10 = alloca i32, align 4
  %11 = alloca i32, align 4
  %12 = alloca i32, align 4
  %13 = alloca i32, align 4
  %14 = alloca i32, align 4
  store i32 0, i32* %1, align 4
  %15 = call i32 (i8*, ...) @__isoc99_scanf(i8* getelementptr inbounds ([3 x i8], [3 x i8]* @.str, i64 0, i64 0), i32* %2)
  store i32 0, i32* %5, align 4
  br label %16

16:                                               ; preds = %158, %0
  %17 = load i32, i32* %5, align 4
  %18 = load i32, i32* %2, align 4
  %19 = icmp slt i32 %17, %18
  br i1 %19, label %20, label %161

20:                                               ; preds = %16
  %21 = bitcast [100 x i8]* %6 to i8*
  call void @llvm.memset.p0i8.i64(i8* align 16 %21, i8 0, i64 100, i1 false)
  %22 = bitcast [100 x i8]* %7 to i8*
  call void @llvm.memset.p0i8.i64(i8* align 16 %22, i8 0, i64 100, i1 false)
  %23 = getelementptr inbounds [100 x i8], [100 x i8]* %6, i64 0, i64 0
  %24 = call i32 (i8*, ...) @__isoc99_scanf(i8* getelementptr inbounds ([3 x i8], [3 x i8]* @.str.1, i64 0, i64 0), i8* %23)
  %25 = getelementptr inbounds [100 x i8], [100 x i8]* %7, i64 0, i64 0
  %26 = call i32 (i8*, ...) @__isoc99_scanf(i8* getelementptr inbounds ([3 x i8], [3 x i8]* @.str.1, i64 0, i64 0), i8* %25)
  %27 = getelementptr inbounds [100 x i8], [100 x i8]* %6, i64 0, i64 0
  %28 = call i64 @strlen(i8* %27) #4
  %29 = trunc i64 %28 to i32
  store i32 %29, i32* %8, align 4
  %30 = getelementptr inbounds [100 x i8], [100 x i8]* %6, i64 0, i64 0
  %31 = call i64 @strlen(i8* %30) #4
  %32 = trunc i64 %31 to i32
  %33 = load i32, i32* %5, align 4
  %34 = sext i32 %33 to i64
  %35 = getelementptr inbounds [100 x i32], [100 x i32]* %3, i64 0, i64 %34
  store i32 %32, i32* %35, align 4
  %36 = getelementptr inbounds [100 x i8], [100 x i8]* %7, i64 0, i64 0
  %37 = call i64 @strlen(i8* %36) #4
  %38 = trunc i64 %37 to i32
  store i32 %38, i32* %9, align 4
  %39 = load i32, i32* %8, align 4
  %40 = sub nsw i32 %39, 1
  store i32 %40, i32* %10, align 4
  br label %41

41:                                               ; preds = %72, %20
  %42 = load i32, i32* %10, align 4
  %43 = load i32, i32* %8, align 4
  %44 = load i32, i32* %9, align 4
  %45 = sub nsw i32 %43, %44
  %46 = sub nsw i32 %45, 1
  %47 = icmp sgt i32 %42, %46
  br i1 %47, label %48, label %75

48:                                               ; preds = %41
  %49 = load i32, i32* %10, align 4
  %50 = sext i32 %49 to i64
  %51 = getelementptr inbounds [100 x i8], [100 x i8]* %6, i64 0, i64 %50
  %52 = load i8, i8* %51, align 1
  %53 = sext i8 %52 to i32
  %54 = load i32, i32* %10, align 4
  %55 = load i32, i32* %8, align 4
  %56 = sub nsw i32 %54, %55
  %57 = load i32, i32* %9, align 4
  %58 = add nsw i32 %56, %57
  %59 = sext i32 %58 to i64
  %60 = getelementptr inbounds [100 x i8], [100 x i8]* %7, i64 0, i64 %59
  %61 = load i8, i8* %60, align 1
  %62 = sext i8 %61 to i32
  %63 = sub nsw i32 %53, %62
  %64 = add nsw i32 %63, 48
  %65 = trunc i32 %64 to i8
  %66 = load i32, i32* %5, align 4
  %67 = sext i32 %66 to i64
  %68 = getelementptr inbounds [100 x [100 x i8]], [100 x [100 x i8]]* %4, i64 0, i64 %67
  %69 = load i32, i32* %10, align 4
  %70 = sext i32 %69 to i64
  %71 = getelementptr inbounds [100 x i8], [100 x i8]* %68, i64 0, i64 %70
  store i8 %65, i8* %71, align 1
  br label %72

72:                                               ; preds = %48
  %73 = load i32, i32* %10, align 4
  %74 = add nsw i32 %73, -1
  store i32 %74, i32* %10, align 4
  br label %41

75:                                               ; preds = %41
  %76 = load i32, i32* %8, align 4
  %77 = load i32, i32* %2, align 4
  %78 = icmp sgt i32 %76, %77
  br i1 %78, label %79, label %102

79:                                               ; preds = %75
  %80 = load i32, i32* %8, align 4
  %81 = load i32, i32* %9, align 4
  %82 = sub nsw i32 %80, %81
  %83 = sub nsw i32 %82, 1
  store i32 %83, i32* %11, align 4
  br label %84

84:                                               ; preds = %98, %79
  %85 = load i32, i32* %11, align 4
  %86 = icmp sge i32 %85, 0
  br i1 %86, label %87, label %101

87:                                               ; preds = %84
  %88 = load i32, i32* %11, align 4
  %89 = sext i32 %88 to i64
  %90 = getelementptr inbounds [100 x i8], [100 x i8]* %6, i64 0, i64 %89
  %91 = load i8, i8* %90, align 1
  %92 = load i32, i32* %5, align 4
  %93 = sext i32 %92 to i64
  %94 = getelementptr inbounds [100 x [100 x i8]], [100 x [100 x i8]]* %4, i64 0, i64 %93
  %95 = load i32, i32* %11, align 4
  %96 = sext i32 %95 to i64
  %97 = getelementptr inbounds [100 x i8], [100 x i8]* %94, i64 0, i64 %96
  store i8 %91, i8* %97, align 1
  br label %98

98:                                               ; preds = %87
  %99 = load i32, i32* %11, align 4
  %100 = add nsw i32 %99, -1
  store i32 %100, i32* %11, align 4
  br label %84

101:                                              ; preds = %84
  br label %102

102:                                              ; preds = %101, %75
  %103 = load i32, i32* %8, align 4
  %104 = sub nsw i32 %103, 1
  store i32 %104, i32* %12, align 4
  br label %105

105:                                              ; preds = %154, %102
  %106 = load i32, i32* %12, align 4
  %107 = icmp sge i32 %106, 0
  br i1 %107, label %108, label %157

108:                                              ; preds = %105
  %109 = load i32, i32* %5, align 4
  %110 = sext i32 %109 to i64
  %111 = getelementptr inbounds [100 x [100 x i8]], [100 x [100 x i8]]* %4, i64 0, i64 %110
  %112 = load i32, i32* %12, align 4
  %113 = sext i32 %112 to i64
  %114 = getelementptr inbounds [100 x i8], [100 x i8]* %111, i64 0, i64 %113
  %115 = load i8, i8* %114, align 1
  %116 = sext i8 %115 to i32
  %117 = icmp slt i32 %116, 48
  br i1 %117, label %118, label %153

118:                                              ; preds = %108
  %119 = load i32, i32* %5, align 4
  %120 = sext i32 %119 to i64
  %121 = getelementptr inbounds [100 x [100 x i8]], [100 x [100 x i8]]* %4, i64 0, i64 %120
  %122 = load i32, i32* %12, align 4
  %123 = sext i32 %122 to i64
  %124 = getelementptr inbounds [100 x i8], [100 x i8]* %121, i64 0, i64 %123
  %125 = load i8, i8* %124, align 1
  %126 = sext i8 %125 to i32
  %127 = add nsw i32 %126, 10
  %128 = trunc i32 %127 to i8
  %129 = load i32, i32* %5, align 4
  %130 = sext i32 %129 to i64
  %131 = getelementptr inbounds [100 x [100 x i8]], [100 x [100 x i8]]* %4, i64 0, i64 %130
  %132 = load i32, i32* %12, align 4
  %133 = sext i32 %132 to i64
  %134 = getelementptr inbounds [100 x i8], [100 x i8]* %131, i64 0, i64 %133
  store i8 %128, i8* %134, align 1
  %135 = load i32, i32* %5, align 4
  %136 = sext i32 %135 to i64
  %137 = getelementptr inbounds [100 x [100 x i8]], [100 x [100 x i8]]* %4, i64 0, i64 %136
  %138 = load i32, i32* %12, align 4
  %139 = sub nsw i32 %138, 1
  %140 = sext i32 %139 to i64
  %141 = getelementptr inbounds [100 x i8], [100 x i8]* %137, i64 0, i64 %140
  %142 = load i8, i8* %141, align 1
  %143 = sext i8 %142 to i32
  %144 = sub nsw i32 %143, 1
  %145 = trunc i32 %144 to i8
  %146 = load i32, i32* %5, align 4
  %147 = sext i32 %146 to i64
  %148 = getelementptr inbounds [100 x [100 x i8]], [100 x [100 x i8]]* %4, i64 0, i64 %147
  %149 = load i32, i32* %12, align 4
  %150 = sub nsw i32 %149, 1
  %151 = sext i32 %150 to i64
  %152 = getelementptr inbounds [100 x i8], [100 x i8]* %148, i64 0, i64 %151
  store i8 %145, i8* %152, align 1
  br label %153

153:                                              ; preds = %118, %108
  br label %154

154:                                              ; preds = %153
  %155 = load i32, i32* %12, align 4
  %156 = add nsw i32 %155, -1
  store i32 %156, i32* %12, align 4
  br label %105

157:                                              ; preds = %105
  br label %158

158:                                              ; preds = %157
  %159 = load i32, i32* %5, align 4
  %160 = add nsw i32 %159, 1
  store i32 %160, i32* %5, align 4
  br label %16

161:                                              ; preds = %16
  store i32 0, i32* %13, align 4
  br label %162

162:                                              ; preds = %189, %161
  %163 = load i32, i32* %13, align 4
  %164 = load i32, i32* %2, align 4
  %165 = icmp slt i32 %163, %164
  br i1 %165, label %166, label %192

166:                                              ; preds = %162
  store i32 0, i32* %14, align 4
  br label %167

167:                                              ; preds = %184, %166
  %168 = load i32, i32* %14, align 4
  %169 = load i32, i32* %13, align 4
  %170 = sext i32 %169 to i64
  %171 = getelementptr inbounds [100 x i32], [100 x i32]* %3, i64 0, i64 %170
  %172 = load i32, i32* %171, align 4
  %173 = icmp slt i32 %168, %172
  br i1 %173, label %174, label %187

174:                                              ; preds = %167
  %175 = load i32, i32* %13, align 4
  %176 = sext i32 %175 to i64
  %177 = getelementptr inbounds [100 x [100 x i8]], [100 x [100 x i8]]* %4, i64 0, i64 %176
  %178 = load i32, i32* %14, align 4
  %179 = sext i32 %178 to i64
  %180 = getelementptr inbounds [100 x i8], [100 x i8]* %177, i64 0, i64 %179
  %181 = load i8, i8* %180, align 1
  %182 = sext i8 %181 to i32
  %183 = call i32 (i8*, ...) @printf(i8* getelementptr inbounds ([3 x i8], [3 x i8]* @.str.2, i64 0, i64 0), i32 %182)
  br label %184

184:                                              ; preds = %174
  %185 = load i32, i32* %14, align 4
  %186 = add nsw i32 %185, 1
  store i32 %186, i32* %14, align 4
  br label %167

187:                                              ; preds = %167
  %188 = call i32 (i8*, ...) @printf(i8* getelementptr inbounds ([2 x i8], [2 x i8]* @.str.3, i64 0, i64 0))
  br label %189

189:                                              ; preds = %187
  %190 = load i32, i32* %13, align 4
  %191 = add nsw i32 %190, 1
  store i32 %191, i32* %13, align 4
  br label %162

192:                                              ; preds = %162
  %193 = load i32, i32* %1, align 4
  ret i32 %193
}

declare dso_local i32 @__isoc99_scanf(i8*, ...) #1

; Function Attrs: argmemonly nounwind willreturn
declare void @llvm.memset.p0i8.i64(i8* nocapture writeonly, i8, i64, i1 immarg) #2

; Function Attrs: nounwind readonly
declare dso_local i64 @strlen(i8*) #3

declare dso_local i32 @printf(i8*, ...) #1


!llvm.module.flags = !{!0}
!llvm.ident = !{!1}

!0 = !{i32 1, !"wchar_size", i32 4}
!1 = !{!"clang version 10.0.0-4ubuntu1 "}
